target datalayout = "e-m:e-p270:32:32-p271:32:32-p272:64:64-i64:64-i128:128-f80:128-n8:16:32:64-S128"
target triple = "x86_64-pc-linux-gnu"

@.str.45 = private unnamed_addr constant [3 x i8] c"DH\00", align 1
@.str.48 = private unnamed_addr constant [9 x i8] c"X9.42 DH\00", align 1
@.str.52 = private unnamed_addr constant [4 x i8] c"DSA\00", align 1
@.str.56 = private unnamed_addr constant [3 x i8] c"EC\00", align 1

; Function Attrs: nounwind uwtable
define internal i32 @check_params_DER(ptr noundef %0, i32 noundef %1, ptr noundef %2, ptr noundef %3, i64 noundef %4) #0 {
  %6 = alloca ptr, align 8
  %7 = alloca i32, align 4
  %8 = alloca ptr, align 8
  %9 = alloca ptr, align 8
  %10 = alloca i64, align 8
  %11 = alloca ptr, align 8
  %12 = alloca i32, align 4
  %13 = alloca i32, align 4
  %14 = alloca ptr, align 8
  store ptr %0, ptr %6, align 8, !tbaa !4
  store i32 %1, ptr %7, align 4, !tbaa !9
  store ptr %2, ptr %8, align 8, !tbaa !4
  store ptr %3, ptr %9, align 8, !tbaa !31
  store i64 %4, ptr %10, align 8, !tbaa !27
  call void @llvm.lifetime.start.p0(i64 8, ptr %11) #7
  %15 = load ptr, ptr %9, align 8, !tbaa !31
  store ptr %15, ptr %11, align 8, !tbaa !4
  call void @llvm.lifetime.start.p0(i64 4, ptr %12) #7
  store i32 0, ptr %12, align 4, !tbaa !9
  call void @llvm.lifetime.start.p0(i64 4, ptr %13) #7
  store i32 0, ptr %13, align 4, !tbaa !9
  call void @llvm.lifetime.start.p0(i64 8, ptr %14) #7
  store ptr null, ptr %14, align 8, !tbaa !23
  %16 = load ptr, ptr %8, align 8, !tbaa !4
  %17 = call i32 @strcmp(ptr noundef %16, ptr noundef @.str.45) #8
  %18 = icmp eq i32 %17, 0
  br i1 %18, label %19, label %20

19:                                               ; preds = %5
  store i32 28, ptr %13, align 4, !tbaa !9
  br label %38

20:                                               ; preds = %5
  %21 = load ptr, ptr %8, align 8, !tbaa !4
  %22 = call i32 @strcmp(ptr noundef %21, ptr noundef @.str.48) #8
  %23 = icmp eq i32 %22, 0
  br i1 %23, label %24, label %25

24:                                               ; preds = %20
  store i32 920, ptr %13, align 4, !tbaa !9
  br label %37

25:                                               ; preds = %20
  %26 = load ptr, ptr %8, align 8, !tbaa !4
  %27 = call i32 @strcmp(ptr noundef %26, ptr noundef @.str.52) #8
  %28 = icmp eq i32 %27, 0
  br i1 %28, label %29, label %30

29:                                               ; preds = %25
  store i32 116, ptr %13, align 4, !tbaa !9
  br label %36

30:                                               ; preds = %25
  %31 = load ptr, ptr %8, align 8, !tbaa !4
  %32 = call i32 @strcmp(ptr noundef %31, ptr noundef @.str.56) #8
  %33 = icmp eq i32 %32, 0
  br i1 %33, label %34, label %35

34:                                               ; preds = %30
  store i32 408, ptr %13, align 4, !tbaa !9
  br label %35

35:                                               ; preds = %34, %30
  br label %36

36:                                               ; preds = %35, %29
  br label %37

37:                                               ; preds = %36, %24
  br label %38

38:                                               ; preds = %37, %19
  %39 = load i32, ptr %13, align 4, !tbaa !9
  %40 = icmp ne i32 %39, 0
  br i1 %40, label %41, label %49

41:                                               ; preds = %38
  %42 = load i32, ptr %13, align 4, !tbaa !9
  %43 = load i64, ptr %10, align 8, !tbaa !27
  %44 = call ptr @d2i_KeyParams(i32 noundef %42, ptr noundef null, ptr noundef %11, i64 noundef %43)
  store ptr %44, ptr %14, align 8, !tbaa !23
  %45 = load ptr, ptr %14, align 8, !tbaa !23
  %46 = icmp ne ptr %45, null
  %47 = zext i1 %46 to i32
  store i32 %47, ptr %12, align 4, !tbaa !9
  %48 = load ptr, ptr %14, align 8, !tbaa !23
  call void @EVP_PKEY_free(ptr noundef %48)
  br label %49

49:                                               ; preds = %41, %38
  %50 = load i32, ptr %12, align 4, !tbaa !9
  call void @llvm.lifetime.end.p0(i64 8, ptr %14) #7
  call void @llvm.lifetime.end.p0(i64 4, ptr %13) #7
  call void @llvm.lifetime.end.p0(i64 4, ptr %12) #7
  call void @llvm.lifetime.end.p0(i64 8, ptr %11) #7
  ret i32 %50
}