; Function Attrs: nounwind uwtable
define internal range(i32 0, 2) i32 @check_params_DER(ptr readnone captures(none) %0, i32 %1, ptr noundef readonly captures(none) %2, ptr noundef %3, i64 noundef %4) #1 {
sub_0:
  %5 = alloca ptr, align 8
  call void @llvm.lifetime.start.p0(i64 8, ptr nonnull %5) #8
  store ptr %3, ptr %5, align 8, !tbaa !36
  %6 = load i8, ptr %2, align 1
  %.not20 = icmp eq i8 %6, 68
  br i1 %.not20, label %sub_1, label %.tail.thread

sub_1:                                            ; preds = %sub_0
  %7 = getelementptr inbounds nuw i8, ptr %2, i64 1
  %8 = load i8, ptr %7, align 1
  %.not21 = icmp eq i8 %8, 72
  br i1 %.not21, label %.tail, label %.tail.thread

.tail:                                            ; preds = %sub_1
  %9 = getelementptr inbounds nuw i8, ptr %2, i64 2
  %10 = load i8, ptr %9, align 1
  %11 = icmp eq i8 %10, 0
  br i1 %11, label %.thread, label %.tail.thread

.tail.thread:                                     ; preds = %sub_1, %sub_0, %.tail
  %12 = tail call i32 @strcmp(ptr noundef nonnull dereferenceable(1) %2, ptr noundef nonnull dereferenceable(9) @.str.48) #9
  %13 = icmp eq i32 %12, 0
  br i1 %13, label %.thread, label %14

14:                                               ; preds = %.tail.thread
  %15 = tail call i32 @strcmp(ptr noundef nonnull dereferenceable(1) %2, ptr noundef nonnull dereferenceable(4) @.str.52) #9
  %16 = icmp eq i32 %15, 0
  br i1 %16, label %.thread, label %sub_016

sub_016:                                          ; preds = %14
  %.not22 = icmp eq i8 %6, 69
  br i1 %.not22, label %sub_117, label %.thread26

sub_117:                                          ; preds = %sub_016
  %17 = getelementptr inbounds nuw i8, ptr %2, i64 1
  %18 = load i8, ptr %17, align 1
  %.not23 = icmp eq i8 %18, 67
  br i1 %.not23, label %.tail15, label %.thread26

.tail15:                                          ; preds = %sub_117
  %19 = getelementptr inbounds nuw i8, ptr %2, i64 2
  %20 = load i8, ptr %19, align 1
  %21 = icmp eq i8 %20, 0
  br i1 %21, label %.thread, label %.thread26

.thread:                                          ; preds = %.tail15, %14, %.tail.thread, %.tail
  %.014 = phi i32 [ 116, %14 ], [ 920, %.tail.thread ], [ 28, %.tail ], [ 408, %.tail15 ]
  %22 = call ptr @d2i_KeyParams(i32 noundef %.014, ptr noundef null, ptr noundef nonnull %5, i64 noundef %4) #8
  %23 = icmp ne ptr %22, null
  %24 = zext i1 %23 to i32
  call void @EVP_PKEY_free(ptr noundef %22) #8
  br label %.thread26

.thread26:                                        ; preds = %sub_117, %sub_016, %.tail15, %.thread
  %.010 = phi i32 [ %24, %.thread ], [ 0, %.tail15 ], [ 0, %sub_016 ], [ 0, %sub_117 ]
  call void @llvm.lifetime.end.p0(i64 8, ptr nonnull %5) #8
  ret i32 %.010
}